target datalayout = "e-m:e-p270:32:32-p271:32:32-p272:64:64-i64:64-i128:128-f80:128-n8:16:32:64-S128"
target triple = "x86_64-pc-linux-gnu"

; Function Attrs: mustprogress nounwind uwtable
define i64 @mz_crc32(i64 noundef %0, ptr noundef %1, i64 noundef %2) #4 {
  %4 = alloca i64, align 8
  %5 = alloca i64, align 8
  %6 = alloca ptr, align 8
  %7 = alloca i64, align 8
  %8 = alloca i32, align 4
  %9 = alloca i8, align 1
  store i64 %0, ptr %5, align 8
  store ptr %1, ptr %6, align 8
  store i64 %2, ptr %7, align 8
  %10 = load i64, ptr %5, align 8
  %11 = trunc i64 %10 to i32
  store i32 %11, ptr %8, align 4
  %12 = load ptr, ptr %6, align 8
  %13 = icmp ne ptr %12, null
  br i1 %13, label %15, label %14

14:                                               ; preds = %3
  store i64 0, ptr %4, align 8
  br label %54

15:                                               ; preds = %3
  %16 = load i32, ptr %8, align 4
  %17 = xor i32 %16, -1
  store i32 %17, ptr %8, align 4
  br label %18

18:                                               ; preds = %22, %15
  %19 = load i64, ptr %7, align 8
  %20 = add i64 %19, -1
  store i64 %20, ptr %7, align 8
  %21 = icmp ne i64 %19, 0
  br i1 %21, label %22, label %50

22:                                               ; preds = %18
  %23 = load ptr, ptr %6, align 8
  %24 = getelementptr inbounds i8, ptr %23, i32 1
  store ptr %24, ptr %6, align 8
  %25 = load i8, ptr %23, align 1
  store i8 %25, ptr %9, align 1
  %26 = load i32, ptr %8, align 4
  %27 = lshr i32 %26, 4
  %28 = load i32, ptr %8, align 4
  %29 = and i32 %28, 15
  %30 = load i8, ptr %9, align 1
  %31 = zext i8 %30 to i32
  %32 = and i32 %31, 15
  %33 = xor i32 %29, %32
  %34 = zext i32 %33 to i64
  %35 = getelementptr inbounds [16 x i32], ptr @_ZZ8mz_crc32E7s_crc32, i64 0, i64 %34
  %36 = load i32, ptr %35, align 4
  %37 = xor i32 %27, %36
  store i32 %37, ptr %8, align 4
  %38 = load i32, ptr %8, align 4
  %39 = lshr i32 %38, 4
  %40 = load i32, ptr %8, align 4
  %41 = and i32 %40, 15
  %42 = load i8, ptr %9, align 1
  %43 = zext i8 %42 to i32
  %44 = ashr i32 %43, 4
  %45 = xor i32 %41, %44
  %46 = zext i32 %45 to i64
  %47 = getelementptr inbounds [16 x i32], ptr @_ZZ8mz_crc32E7s_crc32, i64 0, i64 %46
  %48 = load i32, ptr %47, align 4
  %49 = xor i32 %39, %48
  store i32 %49, ptr %8, align 4
  br label %18, !llvm.loop !14

50:                                               ; preds = %18
  %51 = load i32, ptr %8, align 4
  %52 = xor i32 %51, -1
  %53 = zext i32 %52 to i64
  store i64 %53, ptr %4, align 8
  br label %54

54:                                               ; preds = %50, %14
  %55 = load i64, ptr %4, align 8
  ret i64 %55
}