; Function Attrs: mustprogress nofree norecurse nosync nounwind willreturn memory(read, inaccessiblemem: none) uwtable
define i64 @mz_crc32(i64 noundef %0, ptr noundef readonly %1, i64 noundef %2) local_unnamed_addr #12 {
  %.not = icmp eq ptr %1, null
  br i1 %.not, label %28, label %4

4:                                                ; preds = %3
  %5 = trunc i64 %0 to i32
  %.not1617 = icmp eq i64 %2, 0
  br i1 %.not1617, label %._crit_edge, label %.lr.ph.preheader

.lr.ph.preheader:                                 ; preds = %4
  %6 = xor i32 %5, -1
  br label %.lr.ph

.lr.ph:                                           ; preds = %.lr.ph.preheader, %.lr.ph
  %.01220 = phi i32 [ %25, %.lr.ph ], [ %6, %.lr.ph.preheader ]
  %.01319 = phi i64 [ %7, %.lr.ph ], [ %2, %.lr.ph.preheader ]
  %.01418 = phi ptr [ %8, %.lr.ph ], [ %1, %.lr.ph.preheader ]
  %7 = add i64 %.01319, -1
  %8 = getelementptr inbounds i8, ptr %.01418, i64 1
  %9 = load i8, ptr %.01418, align 1
  %10 = lshr i32 %.01220, 4
  %11 = zext i8 %9 to i32
  %12 = xor i32 %.01220, %11
  %13 = and i32 %12, 15
  %14 = zext nneg i32 %13 to i64
  %15 = getelementptr inbounds [16 x i32], ptr @_ZZ8mz_crc32E7s_crc32, i64 0, i64 %14
  %16 = load i32, ptr %15, align 4
  %17 = xor i32 %16, %10
  %18 = lshr i32 %17, 4
  %19 = and i32 %17, 15
  %20 = lshr i32 %11, 4
  %21 = xor i32 %19, %20
  %22 = zext nneg i32 %21 to i64
  %23 = getelementptr inbounds [16 x i32], ptr @_ZZ8mz_crc32E7s_crc32, i64 0, i64 %22
  %24 = load i32, ptr %23, align 4
  %25 = xor i32 %18, %24
  %.not16 = icmp eq i64 %7, 0
  br i1 %.not16, label %._crit_edge.loopexit, label %.lr.ph, !llvm.loop !13

._crit_edge.loopexit:                             ; preds = %.lr.ph
  %26 = xor i32 %25, -1
  br label %._crit_edge

._crit_edge:                                      ; preds = %._crit_edge.loopexit, %4
  %.012.lcssa = phi i32 [ %5, %4 ], [ %26, %._crit_edge.loopexit ]
  %27 = zext i32 %.012.lcssa to i64
  br label %28

28:                                               ; preds = %3, %._crit_edge
  %.0 = phi i64 [ %27, %._crit_edge ], [ 0, %3 ]
  ret i64 %.0
}